target datalayout = "e-m:e-p270:32:32-p271:32:32-p272:64:64-i64:64-i128:128-f80:128-n8:16:32:64-S128"
target triple = "x86_64-pc-linux-gnu"

%struct.dt_pthread_mutex_t = type { %union.pthread_mutex_t }
%union.pthread_mutex_t = type { %struct.__pthread_mutex_s }
%struct.__pthread_mutex_s = type { i32, i32, i32, i32, i32, i16, i16, %struct.__pthread_internal_list }
%struct.__pthread_internal_list = type { ptr, ptr }
%struct.dt_iop_buffer_dsc_t = type { i32, i32, i32, [6 x [6 x i8]], %struct.anon, [12 x i8], %struct.anon.0, [4 x float], i32, [12 x i8] }
%struct.anon = type { i16, i16 }
%struct.anon.0 = type { i32, [12 x i8], [4 x float] }
%struct.dt_iop_module_t = type { i32, ptr, ptr, ptr, ptr, ptr, ptr, ptr, ptr, ptr, ptr, ptr, ptr, ptr, ptr, ptr, ptr, ptr, ptr, ptr, ptr, ptr, ptr, ptr, ptr, ptr, ptr, ptr, ptr, ptr, ptr, ptr, ptr, ptr, ptr, ptr, ptr, ptr, ptr, ptr, ptr, ptr, ptr, ptr, ptr, ptr, ptr, ptr, ptr, ptr, ptr, ptr, ptr, ptr, ptr, ptr, ptr, [20 x i8], i32, i32, i32, i32, i32, i32, i32, [8 x i8], [4 x float], [4 x float], [4 x float], [4 x float], [4 x float], [4 x float], ptr, %struct.dt_dev_histogram_stats_t, [4 x i32], i32, i32, ptr, i32, i32, ptr, ptr, i32, ptr, %struct.dt_pthread_mutex_t, ptr, ptr, ptr, ptr, %struct.anon.1, ptr, ptr, ptr, ptr, ptr, ptr, ptr, i32, ptr, ptr, ptr, ptr, ptr, ptr, ptr, i32, ptr, i32, [128 x i8], i32, ptr, ptr, i32, [12 x i8] }
%struct.dt_dev_histogram_stats_t = type { i32, i64, i32, i32 }
%struct.anon.1 = type { %struct.anon.2, %struct.anon.3 }
%struct.anon.2 = type { ptr, ptr }
%struct.anon.3 = type { ptr, i32 }
%struct.dt_dev_pixelpipe_t = type { %struct.dt_dev_pixelpipe_cache_t, i32, i64, ptr, i32, i32, float, i32, i32, [12 x i8], %struct.dt_iop_buffer_dsc_t, ptr, ptr, ptr, ptr, i32, i32, i32, i32, ptr, i64, i32, i32, float, float, float, i64, %struct.dt_pthread_mutex_t, %struct.dt_pthread_mutex_t, %struct.dt_pthread_mutex_t, i32, i32, i32, %struct.dt_dev_detail_mask_t, i32, i32, i32, i32, i32, i32, i32, i32, i32, i32, i32, i32, i32, i32, [8 x i8], %struct.dt_image_t, i32, ptr, i32, ptr, ptr, ptr, i32, ptr, i64, [8 x i8] }
%struct.dt_dev_pixelpipe_cache_t = type { i32, i64, i64, ptr, ptr, ptr, ptr, ptr, ptr, i64, i32, i64, i64, i32, i32, i32 }
%struct.dt_dev_detail_mask_t = type { %struct.dt_iop_roi_t, i64, ptr }
%struct.dt_iop_roi_t = type { i32, i32, i32, i32, float }
%struct.dt_image_t = type { i32, i32, float, float, float, float, float, float, float, [64 x i8], [64 x i8], [128 x i8], [64 x i8], [64 x i8], [64 x i8], [64 x i8], i64, i32, %union.dt_image_correction_data_t, [64 x i8], [64 x i8], [64 x i8], [128 x i8], i32, [256 x i8], i32, i32, i32, i32, i32, i32, i32, i32, i32, i32, float, i32, i32, i32, i32, i32, i32, i64, i64, i64, i64, i32, [12 x i8], %struct.dt_iop_buffer_dsc_t, [9 x float], ptr, i32, i32, %struct.dt_image_raw_parameters_t, %struct.dt_image_geoloc_t, %struct._color_harmony_t, i16, [4 x i16], i32, i32, float, float, [4 x float], [4 x [3 x float]], [4 x float], ptr, ptr, i32, i32, [8 x i8] }
%union.dt_image_correction_data_t = type { %struct.anon.5 }
%struct.anon.5 = type { i32, float, [11 x float], [11 x float], [11 x float], [11 x float], [11 x float] }
%struct.dt_image_raw_parameters_t = type { i32 }
%struct.dt_image_geoloc_t = type { double, double, double }
%struct._color_harmony_t = type { i32, i32, i32 }
%struct.dt_dev_pixelpipe_iop_t = type { ptr, ptr, ptr, ptr, i32, i32, %struct.dt_dev_histogram_collection_params_t, ptr, %struct.dt_dev_histogram_stats_t, [4 x i32], float, i32, i32, i64, i32, i32, %struct.dt_iop_roi_t, %struct.dt_iop_roi_t, %struct.dt_iop_roi_t, %struct.dt_iop_roi_t, i32, i32, %struct.dt_iop_buffer_dsc_t, %struct.dt_iop_buffer_dsc_t, ptr, [8 x i8] }
%struct.dt_dev_histogram_collection_params_t = type { ptr, i32 }

@.str.2 = private unnamed_addr constant [11 x i8] c"rawprepare\00", align 1

; Function Attrs: nounwind uwtable
define void @default_input_format(ptr noundef %0, ptr noundef %1, ptr noundef %2, ptr noundef %3) #0 {
  %5 = alloca ptr, align 8
  %6 = alloca ptr, align 8
  %7 = alloca ptr, align 8
  %8 = alloca ptr, align 8
  store ptr %0, ptr %5, align 8, !tbaa !59
  store ptr %1, ptr %6, align 8, !tbaa !61
  store ptr %2, ptr %7, align 8, !tbaa !63
  store ptr %3, ptr %8, align 8, !tbaa !6
  %9 = load ptr, ptr %8, align 8, !tbaa !6
  %10 = getelementptr inbounds nuw %struct.dt_iop_buffer_dsc_t, ptr %9, i32 0, i32 0
  store i32 4, ptr %10, align 16, !tbaa !11
  %11 = load ptr, ptr %8, align 8, !tbaa !6
  %12 = getelementptr inbounds nuw %struct.dt_iop_buffer_dsc_t, ptr %11, i32 0, i32 1
  store i32 1, ptr %12, align 4, !tbaa !19
  %13 = load ptr, ptr %5, align 8, !tbaa !59
  %14 = getelementptr inbounds nuw %struct.dt_iop_module_t, ptr %13, i32 0, i32 16
  %15 = load ptr, ptr %14, align 16, !tbaa !65
  %16 = load ptr, ptr %5, align 8, !tbaa !59
  %17 = load ptr, ptr %6, align 8, !tbaa !61
  %18 = load ptr, ptr %7, align 8, !tbaa !63
  %19 = call i32 %15(ptr noundef %16, ptr noundef %17, ptr noundef %18)
  %20 = load ptr, ptr %8, align 8, !tbaa !6
  %21 = getelementptr inbounds nuw %struct.dt_iop_buffer_dsc_t, ptr %20, i32 0, i32 8
  store i32 %19, ptr %21, align 16, !tbaa !77
  %22 = load ptr, ptr %8, align 8, !tbaa !6
  %23 = getelementptr inbounds nuw %struct.dt_iop_buffer_dsc_t, ptr %22, i32 0, i32 8
  %24 = load i32, ptr %23, align 16, !tbaa !77
  %25 = icmp ne i32 %24, 0
  br i1 %25, label %26, label %27

26:                                               ; preds = %4
  br label %63

27:                                               ; preds = %4
  %28 = load ptr, ptr %6, align 8, !tbaa !61
  %29 = getelementptr inbounds nuw %struct.dt_dev_pixelpipe_t, ptr %28, i32 0, i32 49
  %30 = call i32 @dt_image_is_raw(ptr noundef %29)
  %31 = icmp ne i32 %30, 0
  br i1 %31, label %32, label %35

32:                                               ; preds = %27
  %33 = load ptr, ptr %8, align 8, !tbaa !6
  %34 = getelementptr inbounds nuw %struct.dt_iop_buffer_dsc_t, ptr %33, i32 0, i32 0
  store i32 1, ptr %34, align 16, !tbaa !11
  br label %35

35:                                               ; preds = %32, %27
  %36 = load ptr, ptr %6, align 8, !tbaa !61
  %37 = getelementptr inbounds nuw %struct.dt_dev_pixelpipe_t, ptr %36, i32 0, i32 54
  %38 = load ptr, ptr %37, align 16, !tbaa !78
  %39 = load ptr, ptr %5, align 8, !tbaa !59
  %40 = getelementptr inbounds nuw %struct.dt_iop_module_t, ptr %39, i32 0, i32 57
  %41 = getelementptr inbounds [20 x i8], ptr %40, i64 0, i64 0
  %42 = load ptr, ptr %5, align 8, !tbaa !59
  %43 = getelementptr inbounds nuw %struct.dt_iop_module_t, ptr %42, i32 0, i32 107
  %44 = load i32, ptr %43, align 8, !tbaa !92
  %45 = call i32 @dt_ioppr_get_iop_order(ptr noundef %38, ptr noundef %41, i32 noundef %44)
  %46 = load ptr, ptr %6, align 8, !tbaa !61
  %47 = getelementptr inbounds nuw %struct.dt_dev_pixelpipe_t, ptr %46, i32 0, i32 54
  %48 = load ptr, ptr %47, align 16, !tbaa !78
  %49 = call i32 @dt_ioppr_get_iop_order(ptr noundef %48, ptr noundef @.str.2, i32 noundef 0)
  %50 = icmp sgt i32 %45, %49
  br i1 %50, label %51, label %52

51:                                               ; preds = %35
  br label %63

52:                                               ; preds = %35
  %53 = load ptr, ptr %7, align 8, !tbaa !63
  %54 = getelementptr inbounds nuw %struct.dt_dev_pixelpipe_iop_t, ptr %53, i32 0, i32 1
  %55 = load ptr, ptr %54, align 8, !tbaa !93
  %56 = getelementptr inbounds nuw %struct.dt_dev_pixelpipe_t, ptr %55, i32 0, i32 10
  %57 = getelementptr inbounds nuw %struct.dt_iop_buffer_dsc_t, ptr %56, i32 0, i32 2
  %58 = load i32, ptr %57, align 8, !tbaa !97
  %59 = icmp ne i32 %58, 0
  br i1 %59, label %60, label %63

60:                                               ; preds = %52
  %61 = load ptr, ptr %8, align 8, !tbaa !6
  %62 = getelementptr inbounds nuw %struct.dt_iop_buffer_dsc_t, ptr %61, i32 0, i32 1
  store i32 2, ptr %62, align 4, !tbaa !19
  br label %63

63:                                               ; preds = %26, %51, %60, %52
  ret void
}