; Function Attrs: nounwind uwtable
define void @default_input_format(ptr noundef %0, ptr noundef %1, ptr noundef %2, ptr noundef writeonly captures(none) initializes((0, 8), (112, 116)) %3) local_unnamed_addr #0 {
  store i32 4, ptr %3, align 16, !tbaa !6
  %5 = getelementptr inbounds nuw i8, ptr %3, i64 4
  store i32 1, ptr %5, align 4, !tbaa !14
  %6 = getelementptr inbounds nuw i8, ptr %0, i64 128
  %7 = load ptr, ptr %6, align 16, !tbaa !15
  %8 = tail call i32 %7(ptr noundef %0, ptr noundef %1, ptr noundef %2) #2
  %9 = getelementptr inbounds nuw i8, ptr %3, i64 112
  store i32 %8, ptr %9, align 16, !tbaa !33
  %.not = icmp eq i32 %8, 0
  br i1 %.not, label %10, label %30

10:                                               ; preds = %4
  %11 = getelementptr inbounds nuw i8, ptr %1, i64 640
  %12 = tail call i32 @dt_image_is_raw(ptr noundef nonnull %11) #2
  %.not16 = icmp eq i32 %12, 0
  br i1 %.not16, label %14, label %13

13:                                               ; preds = %10
  store i32 1, ptr %3, align 16, !tbaa !6
  br label %14

14:                                               ; preds = %13, %10
  %15 = getelementptr inbounds nuw i8, ptr %1, i64 2528
  %16 = load ptr, ptr %15, align 16, !tbaa !34
  %17 = getelementptr inbounds nuw i8, ptr %0, i64 456
  %18 = getelementptr inbounds nuw i8, ptr %0, i64 952
  %19 = load i32, ptr %18, align 8, !tbaa !52
  %20 = tail call i32 @dt_ioppr_get_iop_order(ptr noundef %16, ptr noundef nonnull %17, i32 noundef %19) #2
  %21 = load ptr, ptr %15, align 16, !tbaa !34
  %22 = tail call i32 @dt_ioppr_get_iop_order(ptr noundef %21, ptr noundef nonnull @.str.2, i32 noundef 0) #2
  %23 = icmp sgt i32 %20, %22
  br i1 %23, label %30, label %24

24:                                               ; preds = %14
  %25 = getelementptr inbounds nuw i8, ptr %2, i64 8
  %26 = load ptr, ptr %25, align 8, !tbaa !53
  %27 = getelementptr inbounds nuw i8, ptr %26, i64 184
  %28 = load i32, ptr %27, align 8, !tbaa !58
  %.not17 = icmp eq i32 %28, 0
  br i1 %.not17, label %30, label %29

29:                                               ; preds = %24
  store i32 2, ptr %5, align 4, !tbaa !14
  br label %30

30:                                               ; preds = %14, %4, %29, %24
  ret void
}